target datalayout = "e-m:e-p270:32:32-p271:32:32-p272:64:64-i64:64-i128:128-f80:128-n8:16:32:64-S128"
target triple = "x86_64-pc-linux-gnu"

%struct.CRYPTO_REF_COUNT = type { i32 }
%struct.bio_st = type { ptr, ptr, ptr, ptr, ptr, i32, i32, i32, i32, i32, ptr, ptr, ptr, %struct.CRYPTO_REF_COUNT, i64, i64, %struct.crypto_ex_data_st }
%struct.crypto_ex_data_st = type { ptr, ptr }

; Function Attrs: inlinehint nounwind uwtable
define internal i32 @CRYPTO_GET_REF(ptr noundef %0, ptr noundef %1) #3 {
  %3 = alloca ptr, align 8
  %4 = alloca ptr, align 8
  %5 = alloca i32, align 4
  store ptr %0, ptr %3, align 8, !tbaa !25
  store ptr %1, ptr %4, align 8, !tbaa !31
  %6 = load ptr, ptr %3, align 8, !tbaa !25
  %7 = getelementptr inbounds nuw %struct.CRYPTO_REF_COUNT, ptr %6, i32 0, i32 0
  %8 = load atomic i32, ptr %7 acquire, align 4
  store i32 %8, ptr %5, align 4
  %9 = load i32, ptr %5, align 4, !tbaa !26
  %10 = load ptr, ptr %4, align 8, !tbaa !31
  store i32 %9, ptr %10, align 4, !tbaa !26
  ret i32 1
}

; Function Attrs: nounwind uwtable
define void @BIO_free_all(ptr noundef %0) #0 {
  %2 = alloca ptr, align 8
  %3 = alloca ptr, align 8
  %4 = alloca i32, align 4
  store ptr %0, ptr %2, align 8, !tbaa !10
  call void @llvm.lifetime.start.p0(i64 8, ptr %3) #5
  call void @llvm.lifetime.start.p0(i64 4, ptr %4) #5
  br label %5

5:                                                ; preds = %21, %1
  %6 = load ptr, ptr %2, align 8, !tbaa !10
  %7 = icmp ne ptr %6, null
  br i1 %7, label %8, label %22

8:                                                ; preds = %5
  %9 = load ptr, ptr %2, align 8, !tbaa !10
  store ptr %9, ptr %3, align 8, !tbaa !10
  %10 = load ptr, ptr %3, align 8, !tbaa !10
  %11 = getelementptr inbounds nuw %struct.bio_st, ptr %10, i32 0, i32 13
  %12 = call i32 @CRYPTO_GET_REF(ptr noundef %11, ptr noundef %4)
  %13 = load ptr, ptr %2, align 8, !tbaa !10
  %14 = getelementptr inbounds nuw %struct.bio_st, ptr %13, i32 0, i32 11
  %15 = load ptr, ptr %14, align 8, !tbaa !66
  store ptr %15, ptr %2, align 8, !tbaa !10
  %16 = load ptr, ptr %3, align 8, !tbaa !10
  %17 = call i32 @BIO_free(ptr noundef %16)
  %18 = load i32, ptr %4, align 4, !tbaa !26
  %19 = icmp sgt i32 %18, 1
  br i1 %19, label %20, label %21

20:                                               ; preds = %8
  br label %22

21:                                               ; preds = %8
  br label %5, !llvm.loop !71

22:                                               ; preds = %20, %5
  call void @llvm.lifetime.end.p0(i64 4, ptr %4) #5
  call void @llvm.lifetime.end.p0(i64 8, ptr %3) #5
  ret void
}