; Function Attrs: nounwind uwtable
define void @BIO_free_all(ptr noundef %0) local_unnamed_addr #0 {
  %.old1.not = icmp eq ptr %0, null
  br i1 %.old1.not, label %.loopexit, label %.preheader

.preheader:                                       ; preds = %1, %.preheader
  %.0 = phi ptr [ %5, %.preheader ], [ %0, %1 ]
  %2 = getelementptr inbounds nuw i8, ptr %.0, i64 88
  %3 = load atomic i32, ptr %2 acquire, align 4
  %4 = getelementptr inbounds nuw i8, ptr %.0, i64 72
  %5 = load ptr, ptr %4, align 8, !tbaa !56
  %6 = tail call i32 @BIO_free(ptr noundef nonnull %.0)
  %7 = icmp slt i32 %3, 2
  %8 = icmp ne ptr %5, null
  %or.cond = select i1 %7, i1 %8, i1 false
  br i1 %or.cond, label %.preheader, label %.loopexit, !llvm.loop !61

.loopexit:                                        ; preds = %.preheader, %1
  ret void
}